target datalayout = "e-m:e-p270:32:32-p271:32:32-p272:64:64-i64:64-i128:128-f80:128-n8:16:32:64-S128"
target triple = "x86_64-unknown-linux-gnu"

%struct.ReservedRegion = type { %struct.Range, i32 }
%struct.Range = type { i64, i64 }

@.str.9 = private unnamed_addr constant [41 x i8] c"../qemu/hw/core/qdev-properties-system.c\00", align 1
@__func__.set_reserved_region = private unnamed_addr constant [20 x i8] c"set_reserved_region\00", align 1
@.str.60 = private unnamed_addr constant [52 x i8] c"start address of '%s' must be a hexadecimal integer\00", align 1
@.str.61 = private unnamed_addr constant [50 x i8] c"end address of '%s' must be a hexadecimal integer\00", align 1
@.str.62 = private unnamed_addr constant [52 x i8] c"type of '%s' must be a non-negative decimal integer\00", align 1
@.str.63 = private unnamed_addr constant [50 x i8] c"reserved region fields must be separated with ':'\00", align 1

; Function Attrs: nounwind sspstrong uwtable
define internal void @set_reserved_region(ptr noundef %obj, ptr noundef %v, ptr noundef %name, ptr noundef %opaque, ptr noundef %errp) #0 {
entry:
  %obj.addr = alloca ptr, align 8
  %v.addr = alloca ptr, align 8
  %name.addr = alloca ptr, align 8
  %opaque.addr = alloca ptr, align 8
  %errp.addr = alloca ptr, align 8
  %prop = alloca ptr, align 8
  %rr = alloca ptr, align 8
  %endptr = alloca ptr, align 8
  %lob = alloca i64, align 8
  %upb = alloca i64, align 8
  %str = alloca ptr, align 8
  %ret = alloca i32, align 4
  store ptr %obj, ptr %obj.addr, align 8
  store ptr %v, ptr %v.addr, align 8
  store ptr %name, ptr %name.addr, align 8
  store ptr %opaque, ptr %opaque.addr, align 8
  store ptr %errp, ptr %errp.addr, align 8
  %0 = load ptr, ptr %opaque.addr, align 8
  store ptr %0, ptr %prop, align 8
  %1 = load ptr, ptr %obj.addr, align 8
  %2 = load ptr, ptr %prop, align 8
  %call = call ptr @object_field_prop_ptr(ptr noundef %1, ptr noundef %2)
  store ptr %call, ptr %rr, align 8
  %3 = load ptr, ptr %v.addr, align 8
  %4 = load ptr, ptr %name.addr, align 8
  %5 = load ptr, ptr %errp.addr, align 8
  %call1 = call zeroext i1 @visit_type_str(ptr noundef %3, ptr noundef %4, ptr noundef %str, ptr noundef %5)
  br i1 %call1, label %if.end, label %if.then

if.then:                                          ; preds = %entry
  br label %return

if.end:                                           ; preds = %entry
  %6 = load ptr, ptr %str, align 8
  %call2 = call i32 @qemu_strtou64(ptr noundef %6, ptr noundef %endptr, i32 noundef 16, ptr noundef %lob)
  store i32 %call2, ptr %ret, align 4
  %7 = load i32, ptr %ret, align 4
  %tobool = icmp ne i32 %7, 0
  br i1 %tobool, label %if.then3, label %if.end4

if.then3:                                         ; preds = %if.end
  %8 = load ptr, ptr %errp.addr, align 8
  %9 = load ptr, ptr %name.addr, align 8
  call void (ptr, ptr, i32, ptr, ptr, ...) @error_setg_internal(ptr noundef %8, ptr noundef @.str.9, i32 noundef 731, ptr noundef @__func__.set_reserved_region, ptr noundef @.str.60, ptr noundef %9)
  br label %out

if.end4:                                          ; preds = %if.end
  %10 = load ptr, ptr %endptr, align 8
  %11 = load i8, ptr %10, align 1
  %conv = sext i8 %11 to i32
  %cmp = icmp ne i32 %conv, 58
  br i1 %cmp, label %if.then6, label %if.end7

if.then6:                                         ; preds = %if.end4
  br label %separator_error

if.end7:                                          ; preds = %if.end4
  %12 = load ptr, ptr %endptr, align 8
  %add.ptr = getelementptr i8, ptr %12, i64 1
  %call8 = call i32 @qemu_strtou64(ptr noundef %add.ptr, ptr noundef %endptr, i32 noundef 16, ptr noundef %upb)
  store i32 %call8, ptr %ret, align 4
  %13 = load i32, ptr %ret, align 4
  %tobool9 = icmp ne i32 %13, 0
  br i1 %tobool9, label %if.then10, label %if.end11

if.then10:                                        ; preds = %if.end7
  %14 = load ptr, ptr %errp.addr, align 8
  %15 = load ptr, ptr %name.addr, align 8
  call void (ptr, ptr, i32, ptr, ptr, ...) @error_setg_internal(ptr noundef %14, ptr noundef @.str.9, i32 noundef 741, ptr noundef @__func__.set_reserved_region, ptr noundef @.str.61, ptr noundef %15)
  br label %out

if.end11:                                         ; preds = %if.end7
  %16 = load ptr, ptr %endptr, align 8
  %17 = load i8, ptr %16, align 1
  %conv12 = sext i8 %17 to i32
  %cmp13 = icmp ne i32 %conv12, 58
  br i1 %cmp13, label %if.then15, label %if.end16

if.then15:                                        ; preds = %if.end11
  br label %separator_error

if.end16:                                         ; preds = %if.end11
  %18 = load ptr, ptr %rr, align 8
  %range = getelementptr inbounds %struct.ReservedRegion, ptr %18, i32 0, i32 0
  %19 = load i64, ptr %lob, align 8
  %20 = load i64, ptr %upb, align 8
  call void @range_set_bounds(ptr noundef %range, i64 noundef %19, i64 noundef %20)
  %21 = load ptr, ptr %endptr, align 8
  %add.ptr17 = getelementptr i8, ptr %21, i64 1
  %22 = load ptr, ptr %rr, align 8
  %type = getelementptr inbounds %struct.ReservedRegion, ptr %22, i32 0, i32 1
  %call18 = call i32 @qemu_strtoui(ptr noundef %add.ptr17, ptr noundef %endptr, i32 noundef 10, ptr noundef %type)
  store i32 %call18, ptr %ret, align 4
  %23 = load i32, ptr %ret, align 4
  %tobool19 = icmp ne i32 %23, 0
  br i1 %tobool19, label %if.then20, label %if.end21

if.then20:                                        ; preds = %if.end16
  %24 = load ptr, ptr %errp.addr, align 8
  %25 = load ptr, ptr %name.addr, align 8
  call void (ptr, ptr, i32, ptr, ptr, ...) @error_setg_internal(ptr noundef %24, ptr noundef @.str.9, i32 noundef 753, ptr noundef @__func__.set_reserved_region, ptr noundef @.str.62, ptr noundef %25)
  br label %if.end21

if.end21:                                         ; preds = %if.then20, %if.end16
  br label %out

separator_error:                                  ; preds = %if.then15, %if.then6
  %26 = load ptr, ptr %errp.addr, align 8
  call void (ptr, ptr, i32, ptr, ptr, ...) @error_setg_internal(ptr noundef %26, ptr noundef @.str.9, i32 noundef 758, ptr noundef @__func__.set_reserved_region, ptr noundef @.str.63)
  br label %out

out:                                              ; preds = %separator_error, %if.end21, %if.then10, %if.then3
  %27 = load ptr, ptr %str, align 8
  call void @g_free(ptr noundef %27)
  br label %return

return:                                           ; preds = %out, %if.then
  ret void
}