; Function Attrs: nounwind sspstrong uwtable
define internal void @set_reserved_region(ptr noundef %obj, ptr noundef %v, ptr noundef %name, ptr noundef %opaque, ptr noundef %errp) #0 {
entry:
  %endptr = alloca ptr, align 8
  %lob = alloca i64, align 8
  %upb = alloca i64, align 8
  %str = alloca ptr, align 8
  %call = tail call ptr @object_field_prop_ptr(ptr noundef %obj, ptr noundef %opaque) #10
  %call1 = call zeroext i1 @visit_type_str(ptr noundef %v, ptr noundef %name, ptr noundef nonnull %str, ptr noundef %errp) #10
  br i1 %call1, label %if.end, label %return

if.end:                                           ; preds = %entry
  %0 = load ptr, ptr %str, align 8
  %call2 = call i32 @qemu_strtou64(ptr noundef %0, ptr noundef nonnull %endptr, i32 noundef 16, ptr noundef nonnull %lob) #10
  %tobool.not = icmp eq i32 %call2, 0
  br i1 %tobool.not, label %if.end4, label %if.then3

if.then3:                                         ; preds = %if.end
  call void (ptr, ptr, i32, ptr, ptr, ...) @error_setg_internal(ptr noundef %errp, ptr noundef nonnull @.str.9, i32 noundef 731, ptr noundef nonnull @__func__.set_reserved_region, ptr noundef nonnull @.str.60, ptr noundef %name) #10
  br label %out

if.end4:                                          ; preds = %if.end
  %1 = load ptr, ptr %endptr, align 8
  %2 = load i8, ptr %1, align 1
  %cmp.not = icmp eq i8 %2, 58
  br i1 %cmp.not, label %if.end7, label %separator_error

if.end7:                                          ; preds = %if.end4
  %add.ptr = getelementptr i8, ptr %1, i64 1
  %call8 = call i32 @qemu_strtou64(ptr noundef %add.ptr, ptr noundef nonnull %endptr, i32 noundef 16, ptr noundef nonnull %upb) #10
  %tobool9.not = icmp eq i32 %call8, 0
  br i1 %tobool9.not, label %if.end11, label %if.then10

if.then10:                                        ; preds = %if.end7
  call void (ptr, ptr, i32, ptr, ptr, ...) @error_setg_internal(ptr noundef %errp, ptr noundef nonnull @.str.9, i32 noundef 741, ptr noundef nonnull @__func__.set_reserved_region, ptr noundef nonnull @.str.61, ptr noundef %name) #10
  br label %out

if.end11:                                         ; preds = %if.end7
  %3 = load ptr, ptr %endptr, align 8
  %4 = load i8, ptr %3, align 1
  %cmp13.not = icmp eq i8 %4, 58
  br i1 %cmp13.not, label %if.end16, label %separator_error

if.end16:                                         ; preds = %if.end11
  %5 = load i64, ptr %lob, align 8
  %6 = load i64, ptr %upb, align 8
  call fastcc void @range_set_bounds(ptr noundef %call, i64 noundef %5, i64 noundef %6)
  %7 = load ptr, ptr %endptr, align 8
  %add.ptr17 = getelementptr i8, ptr %7, i64 1
  %type = getelementptr inbounds nuw i8, ptr %call, i64 16
  %call18 = call i32 @qemu_strtoui(ptr noundef %add.ptr17, ptr noundef nonnull %endptr, i32 noundef 10, ptr noundef nonnull %type) #10
  %tobool19.not = icmp eq i32 %call18, 0
  br i1 %tobool19.not, label %out, label %if.then20

if.then20:                                        ; preds = %if.end16
  call void (ptr, ptr, i32, ptr, ptr, ...) @error_setg_internal(ptr noundef %errp, ptr noundef nonnull @.str.9, i32 noundef 753, ptr noundef nonnull @__func__.set_reserved_region, ptr noundef nonnull @.str.62, ptr noundef %name) #10
  br label %out

separator_error:                                  ; preds = %if.end11, %if.end4
  call void (ptr, ptr, i32, ptr, ptr, ...) @error_setg_internal(ptr noundef %errp, ptr noundef nonnull @.str.9, i32 noundef 758, ptr noundef nonnull @__func__.set_reserved_region, ptr noundef nonnull @.str.63) #10
  br label %out

out:                                              ; preds = %if.end16, %if.then20, %separator_error, %if.then10, %if.then3
  %8 = load ptr, ptr %str, align 8
  call void @g_free(ptr noundef %8) #10
  br label %return

return:                                           ; preds = %entry, %out
  ret void
}